; Function Attrs: mustprogress nofree norecurse nosync nounwind willreturn memory(argmem: read) uwtable
define ptr @WasmEdge_ImportTypeGetGlobalType(ptr noundef readnone %0, ptr noundef readonly %1) local_unnamed_addr #4 {
  %3 = icmp ne ptr %0, null
  %4 = icmp ne ptr %1, null
  %or.cond = and i1 %3, %4
  br i1 %or.cond, label %5, label %9

5:                                                ; preds = %2
  %6 = load i8, ptr %1, align 8
  %7 = icmp eq i8 %6, 3
  %8 = getelementptr inbounds i8, ptr %1, i64 108
  %spec.select = select i1 %7, ptr %8, ptr null
  br label %9

9:                                                ; preds = %5, %2
  %.0 = phi ptr [ null, %2 ], [ %spec.select, %5 ]
  ret ptr %.0
}